(dp0
S'Erin'
p1
(dp2
S'darryl'
p3
I11
sS'oscar'
p4
I8
sS'jim'
p5
I20
sS'michael'
p6
I48
sS'angela'
p7
I9
sS'pam'
p8
I30
sS'erin'
p9
I38
sS'andy'
p10
I129
sS'ryan'
p11
I3
sS'dwight'
p12
I41
sS'kevin'
p13
I9
ssS'Oscar'
p14
(dp15
S'jan'
p16
I6
sg4
I23
sg5
I22
sg6
I80
sg3
I3
sg7
I53
sg12
I31
sg9
I26
sg10
I38
sg11
I7
sg8
I28
sg13
I49
ssS'Jim'
p17
(dp18
g16
I14
sg4
I28
sg5
I134
sg6
I238
sg3
I25
sg7
I27
sg8
I331
sg9
I56
sg10
I86
sg11
I31
sg12
I346
sg13
I30
ssS'Michael'
p19
(dp20
g9
I151
sg4
I123
sg5
I335
sg6
I339
sg3
I64
sg11
I195
sg12
I488
sg16
I222
sg10
I99
sg7
I65
sg8
I415
sg13
I114
ssS'Ryan'
p21
(dp22
g9
I16
sg16
I6
sg4
I2
sg5
I28
sg6
I67
sg7
I2
sg8
I31
sg3
I6
sg10
I7
sg11
I32
sg12
I24
sg13
I10
ssS'Pam'
p23
(dp24
g9
I62
sg4
I32
sg5
I292
sg6
I332
sg3
I25
sg7
I62
sg12
I157
sg16
I37
sg10
I58
sg11
I41
sg8
I105
sg13
I41
ssS'Darryl'
p25
(dp26
g16
I1
sg9
I12
sg4
I5
sg5
I36
sg6
I15
sg11
I4
sg12
I14
sg3
I20
sg10
I34
sg7
I1
sg8
I8
sg13
I11
ssS'Andy'
p27
(dp28
g9
I146
sg4
I36
sg5
I80
sg6
I66
sg3
I49
sg7
I56
sg8
I44
sg16
I13
sg10
I107
sg11
I10
sg12
I118
sg13
I40
ssS'Angela'
p29
(dp30
g9
I14
sg4
I36
sg5
I16
sg6
I33
sg7
I28
sg8
I43
sg16
I6
sg10
I38
sg11
I3
sg12
I105
sg13
I51
ssS'Jan'
p31
(dp32
g9
I3
sg4
I1
sg5
I12
sg6
I180
sg3
I1
sg7
I4
sg8
I20
sg16
I14
sg10
I2
sg11
I3
sg12
I14
sg13
I3
ssS'Dwight'
p33
(dp34
g16
I35
sg4
I39
sg5
I389
sg6
I356
sg3
I27
sg11
I63
sg12
I231
sg9
I104
sg10
I116
sg7
I85
sg8
I140
sg13
I56
ssS'Kevin'
p35
(dp36
g9
I18
sg4
I52
sg5
I50
sg6
I86
sg3
I11
sg11
I13
sg12
I23
sg16
I12
sg10
I31
sg7
I48
sg8
I48
sg13
I52
ss.